ARM GAS  C:\Users\MATEOC~1.QUE\AppData\Local\Temp\ccdcWfhO.s 			page 1


   1              		.syntax unified
   2              		.cpu cortex-m3
   3              		.fpu softvfp
   4              		.eabi_attribute 20, 1
   5              		.eabi_attribute 21, 1
   6              		.eabi_attribute 23, 3
   7              		.eabi_attribute 24, 1
   8              		.eabi_attribute 25, 1
   9              		.eabi_attribute 26, 1
  10              		.eabi_attribute 30, 1
  11              		.eabi_attribute 34, 1
  12              		.eabi_attribute 18, 4
  13              		.thumb
  14              		.syntax unified
  15              		.file	"main.c"
  16              		.text
  17              	.Ltext0:
  18              		.cfi_sections	.debug_frame
  19              		.section	.text.isr_sampling_button,"ax",%progbits
  20              		.align	2
  21              		.global	isr_sampling_button
  22              		.thumb
  23              		.thumb_func
  24              		.type	isr_sampling_button, %function
  25              	isr_sampling_button:
  26              	.LFB65:
  27              		.file 1 "main.c"
   1:main.c        **** #include "project.h"
   2:main.c        **** #include "stdlib.h"
   3:main.c        **** 
   4:main.c        **** #include "statemachine.h"
   5:main.c        **** 
   6:main.c        **** /**
   7:main.c        **** * Prototype of your own ISR
   8:main.c        **** **/
   9:main.c        **** CY_ISR_PROTO(isr_sampling_button);
  10:main.c        **** CY_ISR_PROTO(isr_adc_eoc);
  11:main.c        **** CY_ISR_PROTO(isr_uart_rx);
  12:main.c        **** 
  13:main.c        **** //function declarations
  14:main.c        **** void init(void);
  15:main.c        **** 
  16:main.c        **** 
  17:main.c        **** int main(void)
  18:main.c        **** {
  19:main.c        ****     CyGlobalIntEnable; 
  20:main.c        ****     /* Enable global interrupts. */
  21:main.c        ****     isr_btn_StartEx(isr_sampling_button);
  22:main.c        ****     isr_uart_StartEx(isr_uart_rx);
  23:main.c        ****     
  24:main.c        ****     //initialize peripherals
  25:main.c        ****     init();
  26:main.c        ****     for(;;)
  27:main.c        ****     {   
  28:main.c        ****         stateMachine(state); //call state machine indefinitely
  29:main.c        ****     }
  30:main.c        **** }
ARM GAS  C:\Users\MATEOC~1.QUE\AppData\Local\Temp\ccdcWfhO.s 			page 2


  31:main.c        **** 
  32:main.c        **** /* init function
  33:main.c        **** * initialize all the peripherals
  34:main.c        **** * called before the switch case
  35:main.c        **** * input parameters : NONE
  36:main.c        **** * return : NONE
  37:main.c        **** */
  38:main.c        **** void init()
  39:main.c        **** {   
  40:main.c        ****     ADC_Start();
  41:main.c        ****     DAC_Start();
  42:main.c        ****     UART_Start();
  43:main.c        **** }
  44:main.c        **** 
  45:main.c        **** 
  46:main.c        **** /** Button ISR
  47:main.c        **** * This interrupt service routine will be called whenever a Button
  48:main.c        **** rising edge interrupt occurs
  49:main.c        **** **/
  50:main.c        **** CY_ISR(isr_sampling_button)
  51:main.c        **** {
  28              		.loc 1 51 0
  29              		.cfi_startproc
  30              		@ args = 0, pretend = 0, frame = 0
  31              		@ frame_needed = 0, uses_anonymous_args = 0
  32 0000 08B5     		push	{r3, lr}
  33              		.cfi_def_cfa_offset 8
  34              		.cfi_offset 3, -8
  35              		.cfi_offset 14, -4
  52:main.c        ****     Btn_startSample_ClearInterrupt();
  36              		.loc 1 52 0
  37 0002 FFF7FEFF 		bl	Btn_startSample_ClearInterrupt
  38              	.LVL0:
  53:main.c        ****     state = STATE_SAMPLING;
  39              		.loc 1 53 0
  40 0006 0122     		movs	r2, #1
  41 0008 014B     		ldr	r3, .L3
  42 000a 1A70     		strb	r2, [r3]
  43 000c 08BD     		pop	{r3, pc}
  44              	.L4:
  45 000e 00BF     		.align	2
  46              	.L3:
  47 0010 00000000 		.word	state
  48              		.cfi_endproc
  49              	.LFE65:
  50              		.size	isr_sampling_button, .-isr_sampling_button
  51              		.section	.text.isr_uart_rx,"ax",%progbits
  52              		.align	2
  53              		.global	isr_uart_rx
  54              		.thumb
  55              		.thumb_func
  56              		.type	isr_uart_rx, %function
  57              	isr_uart_rx:
  58              	.LFB67:
  54:main.c        **** 
  55:main.c        **** }
  56:main.c        **** 
ARM GAS  C:\Users\MATEOC~1.QUE\AppData\Local\Temp\ccdcWfhO.s 			page 3


  57:main.c        **** /** ADC ISR
  58:main.c        **** * This interrupt service routine will be called at the end of each conversion
  59:main.c        **** **/
  60:main.c        **** CY_ISR(isr_adc_eoc)
  61:main.c        **** {
  62:main.c        ****     if(ADC_IsEndConversion(ADC_WAIT_FOR_RESULT))
  63:main.c        ****     {
  64:main.c        ****         eoc = 1;
  65:main.c        ****         ADC_StopConvert();
  66:main.c        ****     }
  67:main.c        **** }
  68:main.c        **** 
  69:main.c        **** /* UART ISR
  70:main.c        **** * checks if the incoming data is 's' or 'o'
  71:main.c        **** */
  72:main.c        **** CY_ISR(isr_uart_rx)
  73:main.c        **** {
  59              		.loc 1 73 0
  60              		.cfi_startproc
  61              		@ args = 0, pretend = 0, frame = 0
  62              		@ frame_needed = 0, uses_anonymous_args = 0
  63 0000 08B5     		push	{r3, lr}
  64              		.cfi_def_cfa_offset 8
  65              		.cfi_offset 3, -8
  66              		.cfi_offset 14, -4
  74:main.c        ****     ch = UART_GetChar();
  67              		.loc 1 74 0
  68 0002 FFF7FEFF 		bl	UART_GetChar
  69              	.LVL1:
  70 0006 064B     		ldr	r3, .L9
  71 0008 1870     		strb	r0, [r3]
  75:main.c        ****     if(ch == 's')
  72              		.loc 1 75 0
  73 000a 7328     		cmp	r0, #115
  74 000c 02D1     		bne	.L6
  76:main.c        ****     {
  77:main.c        ****         charS = 1;   
  75              		.loc 1 77 0
  76 000e 0122     		movs	r2, #1
  77 0010 044B     		ldr	r3, .L9+4
  78 0012 1A60     		str	r2, [r3]
  79              	.L6:
  78:main.c        ****     }
  79:main.c        ****     if(ch == 'o')
  80              		.loc 1 79 0
  81 0014 6F28     		cmp	r0, #111
  82 0016 02D1     		bne	.L5
  80:main.c        ****     {
  81:main.c        ****         charO = 1;
  83              		.loc 1 81 0
  84 0018 0122     		movs	r2, #1
  85 001a 034B     		ldr	r3, .L9+8
  86 001c 1A60     		str	r2, [r3]
  87              	.L5:
  88 001e 08BD     		pop	{r3, pc}
  89              	.L10:
  90              		.align	2
ARM GAS  C:\Users\MATEOC~1.QUE\AppData\Local\Temp\ccdcWfhO.s 			page 4


  91              	.L9:
  92 0020 00000000 		.word	ch
  93 0024 00000000 		.word	charS
  94 0028 00000000 		.word	charO
  95              		.cfi_endproc
  96              	.LFE67:
  97              		.size	isr_uart_rx, .-isr_uart_rx
  98              		.section	.text.init,"ax",%progbits
  99              		.align	2
 100              		.global	init
 101              		.thumb
 102              		.thumb_func
 103              		.type	init, %function
 104              	init:
 105              	.LFB64:
  39:main.c        ****     ADC_Start();
 106              		.loc 1 39 0
 107              		.cfi_startproc
 108              		@ args = 0, pretend = 0, frame = 0
 109              		@ frame_needed = 0, uses_anonymous_args = 0
 110 0000 08B5     		push	{r3, lr}
 111              		.cfi_def_cfa_offset 8
 112              		.cfi_offset 3, -8
 113              		.cfi_offset 14, -4
  40:main.c        ****     DAC_Start();
 114              		.loc 1 40 0
 115 0002 FFF7FEFF 		bl	ADC_Start
 116              	.LVL2:
  41:main.c        ****     UART_Start();
 117              		.loc 1 41 0
 118 0006 FFF7FEFF 		bl	DAC_Start
 119              	.LVL3:
  42:main.c        **** }
 120              		.loc 1 42 0
 121 000a FFF7FEFF 		bl	UART_Start
 122              	.LVL4:
 123 000e 08BD     		pop	{r3, pc}
 124              		.cfi_endproc
 125              	.LFE64:
 126              		.size	init, .-init
 127              		.section	.text.main,"ax",%progbits
 128              		.align	2
 129              		.global	main
 130              		.thumb
 131              		.thumb_func
 132              		.type	main, %function
 133              	main:
 134              	.LFB63:
  18:main.c        ****     CyGlobalIntEnable; 
 135              		.loc 1 18 0
 136              		.cfi_startproc
 137              		@ Volatile: function does not return.
 138              		@ args = 0, pretend = 0, frame = 0
 139              		@ frame_needed = 0, uses_anonymous_args = 0
 140 0000 08B5     		push	{r3, lr}
 141              		.cfi_def_cfa_offset 8
 142              		.cfi_offset 3, -8
ARM GAS  C:\Users\MATEOC~1.QUE\AppData\Local\Temp\ccdcWfhO.s 			page 5


 143              		.cfi_offset 14, -4
  19:main.c        ****     /* Enable global interrupts. */
 144              		.loc 1 19 0
 145              		.syntax unified
 146              	@ 19 "main.c" 1
 147 0002 62B6     		CPSIE   i
 148              	@ 0 "" 2
  21:main.c        ****     isr_uart_StartEx(isr_uart_rx);
 149              		.loc 1 21 0
 150              		.thumb
 151              		.syntax unified
 152 0004 0648     		ldr	r0, .L16
 153 0006 FFF7FEFF 		bl	isr_btn_StartEx
 154              	.LVL5:
  22:main.c        ****     
 155              		.loc 1 22 0
 156 000a 0648     		ldr	r0, .L16+4
 157 000c FFF7FEFF 		bl	isr_uart_StartEx
 158              	.LVL6:
  25:main.c        ****     for(;;)
 159              		.loc 1 25 0
 160 0010 FFF7FEFF 		bl	init
 161              	.LVL7:
 162              	.L14:
  28:main.c        ****     }
 163              		.loc 1 28 0 discriminator 1
 164 0014 044B     		ldr	r3, .L16+8
 165 0016 1878     		ldrb	r0, [r3]	@ zero_extendqisi2
 166 0018 FFF7FEFF 		bl	stateMachine
 167              	.LVL8:
 168 001c FAE7     		b	.L14
 169              	.L17:
 170 001e 00BF     		.align	2
 171              	.L16:
 172 0020 00000000 		.word	isr_sampling_button
 173 0024 00000000 		.word	isr_uart_rx
 174 0028 00000000 		.word	state
 175              		.cfi_endproc
 176              	.LFE63:
 177              		.size	main, .-main
 178              		.section	.text.isr_adc_eoc,"ax",%progbits
 179              		.align	2
 180              		.global	isr_adc_eoc
 181              		.thumb
 182              		.thumb_func
 183              		.type	isr_adc_eoc, %function
 184              	isr_adc_eoc:
 185              	.LFB66:
  61:main.c        ****     if(ADC_IsEndConversion(ADC_WAIT_FOR_RESULT))
 186              		.loc 1 61 0
 187              		.cfi_startproc
 188              		@ args = 0, pretend = 0, frame = 0
 189              		@ frame_needed = 0, uses_anonymous_args = 0
 190 0000 08B5     		push	{r3, lr}
 191              		.cfi_def_cfa_offset 8
 192              		.cfi_offset 3, -8
 193              		.cfi_offset 14, -4
ARM GAS  C:\Users\MATEOC~1.QUE\AppData\Local\Temp\ccdcWfhO.s 			page 6


  62:main.c        ****     {
 194              		.loc 1 62 0
 195 0002 0020     		movs	r0, #0
 196 0004 FFF7FEFF 		bl	ADC_IsEndConversion
 197              	.LVL9:
 198 0008 08B1     		cbz	r0, .L18
  65:main.c        ****     }
 199              		.loc 1 65 0
 200 000a FFF7FEFF 		bl	ADC_StopConvert
 201              	.LVL10:
 202              	.L18:
 203 000e 08BD     		pop	{r3, pc}
 204              		.cfi_endproc
 205              	.LFE66:
 206              		.size	isr_adc_eoc, .-isr_adc_eoc
 207              		.text
 208              	.Letext0:
 209              		.file 2 "c:\\program files (x86)\\cypress\\psoc creator\\4.4\\psoc creator\\import\\gnu\\arm\\5.4.
 210              		.file 3 "c:\\program files (x86)\\cypress\\psoc creator\\4.4\\psoc creator\\import\\gnu\\arm\\5.4.
 211              		.file 4 "Generated_Source\\PSoC5/cytypes.h"
 212              		.file 5 "statemachine.h"
 213              		.file 6 "Generated_Source\\PSoC5/core_cm3.h"
 214              		.file 7 "Generated_Source\\PSoC5/Btn_startSample.h"
 215              		.file 8 "Generated_Source\\PSoC5/UART.h"
 216              		.file 9 "Generated_Source\\PSoC5/ADC.h"
 217              		.file 10 "Generated_Source\\PSoC5/DAC.h"
 218              		.file 11 "Generated_Source\\PSoC5/isr_btn.h"
 219              		.file 12 "Generated_Source\\PSoC5/isr_uart.h"