ARM GAS  C:\Users\MATEOC~1.QUE\AppData\Local\Temp\ccp2E1IX.s 			page 1


   1              		.syntax unified
   2              		.cpu cortex-m3
   3              		.fpu softvfp
   4              		.eabi_attribute 20, 1
   5              		.eabi_attribute 21, 1
   6              		.eabi_attribute 23, 3
   7              		.eabi_attribute 24, 1
   8              		.eabi_attribute 25, 1
   9              		.eabi_attribute 26, 1
  10              		.eabi_attribute 30, 1
  11              		.eabi_attribute 34, 1
  12              		.eabi_attribute 18, 4
  13              		.thumb
  14              		.syntax unified
  15              		.file	"statemachine.c"
  16              		.text
  17              	.Ltext0:
  18              		.cfi_sections	.debug_frame
  19              		.section	.text.idle,"ax",%progbits
  20              		.align	2
  21              		.global	idle
  22              		.thumb
  23              		.thumb_func
  24              		.type	idle, %function
  25              	idle:
  26              	.LFB64:
  27              		.file 1 "statemachine.c"
   1:statemachine.c **** #include "statemachine.h"
   2:statemachine.c **** 
   3:statemachine.c **** uint8 count; // number of samples read
   4:statemachine.c **** uint16 sample[1024]; //sample array to store adc data
   5:statemachine.c **** STATE_t state = STATE_IDLE; //state type global variable (idle default)
   6:statemachine.c **** uint32 OutPut; // ADC output is 32 bit
   7:statemachine.c **** uint16 OutPut_mv; // ADC 32 bit output is cast to 16 bit
   8:statemachine.c **** uint8 high, low; // UART can only send 8 bits at a time so 16 bit is split into low byte and high b
   9:statemachine.c **** uint8 ch;  // store the char sent by MATLAB through UART
  10:statemachine.c **** 
  11:statemachine.c **** int charS = 0;
  12:statemachine.c **** int charO = 0;
  13:statemachine.c **** 
  14:statemachine.c **** /* stateMachine function
  15:statemachine.c **** * sets global counter variable to 0
  16:statemachine.c **** * input parameters : STATE_t state
  17:statemachine.c **** * return : NONE
  18:statemachine.c **** */
  19:statemachine.c **** void stateMachine(STATE_t state)
  20:statemachine.c **** {
  21:statemachine.c ****     switch(state)
  22:statemachine.c ****         {
  23:statemachine.c ****             case STATE_SAMPLING:
  24:statemachine.c ****                 LED_yellow_Write(1);
  25:statemachine.c ****                 sampling();
  26:statemachine.c ****                 LED_yellow_Write(0);
  27:statemachine.c ****                 break;
  28:statemachine.c ****             case STATE_UART_TRANSFER:
  29:statemachine.c ****                 LED_green_Write(1);
  30:statemachine.c ****                 uartTransfer();
ARM GAS  C:\Users\MATEOC~1.QUE\AppData\Local\Temp\ccp2E1IX.s 			page 2


  31:statemachine.c ****                 LED_green_Write(0);
  32:statemachine.c ****                 break;
  33:statemachine.c ****             case STATE_IDLE:
  34:statemachine.c ****                 LED_red_Write(1);
  35:statemachine.c ****                 idle(); // default state is the STATE_IDLE
  36:statemachine.c ****                 LED_red_Write(0);
  37:statemachine.c ****                 break;
  38:statemachine.c ****         } 
  39:statemachine.c **** }
  40:statemachine.c **** 
  41:statemachine.c **** /* idle function
  42:statemachine.c **** * sets global counter variable to 0
  43:statemachine.c **** * caused by STATE_IDLE
  44:statemachine.c **** * input parameters : NONE
  45:statemachine.c **** * return : NONE
  46:statemachine.c **** */
  47:statemachine.c **** void idle()
  48:statemachine.c **** {
  28              		.loc 1 48 0
  29              		.cfi_startproc
  30              		@ args = 0, pretend = 0, frame = 0
  31              		@ frame_needed = 0, uses_anonymous_args = 0
  32              		@ link register save eliminated.
  49:statemachine.c ****     //UART_PutString("IDLE\n");
  50:statemachine.c ****     count = 0;
  33              		.loc 1 50 0
  34 0000 0022     		movs	r2, #0
  35 0002 014B     		ldr	r3, .L2
  36 0004 1A70     		strb	r2, [r3]
  37 0006 7047     		bx	lr
  38              	.L3:
  39              		.align	2
  40              	.L2:
  41 0008 00000000 		.word	count
  42              		.cfi_endproc
  43              	.LFE64:
  44              		.size	idle, .-idle
  45              		.section	.text.sampling,"ax",%progbits
  46              		.align	2
  47              		.global	sampling
  48              		.thumb
  49              		.thumb_func
  50              		.type	sampling, %function
  51              	sampling:
  52              	.LFB65:
  51:statemachine.c ****     
  52:statemachine.c **** }
  53:statemachine.c **** 
  54:statemachine.c **** /* sampling function
  55:statemachine.c **** * copies adc value into the sample array while uart char is not 's'
  56:statemachine.c **** * caused by STATE_IDLE
  57:statemachine.c **** * input parameters : NONE
  58:statemachine.c **** * return : NONE
  59:statemachine.c **** */
  60:statemachine.c **** void sampling()
  61:statemachine.c **** {
  53              		.loc 1 61 0
ARM GAS  C:\Users\MATEOC~1.QUE\AppData\Local\Temp\ccp2E1IX.s 			page 3


  54              		.cfi_startproc
  55              		@ args = 0, pretend = 0, frame = 0
  56              		@ frame_needed = 0, uses_anonymous_args = 0
  57 0000 10B5     		push	{r4, lr}
  58              		.cfi_def_cfa_offset 8
  59              		.cfi_offset 4, -8
  60              		.cfi_offset 14, -4
  61              	.LVL0:
  62              	.LBB2:
  62:statemachine.c ****    //UART_PutString("SAMPLING\n");
  63:statemachine.c ****    for (int count_sample=0;count_sample<1024;count_sample++)
  63              		.loc 1 63 0
  64 0002 0024     		movs	r4, #0
  65 0004 0FE0     		b	.L5
  66              	.LVL1:
  67              	.L6:
  64:statemachine.c ****    {
  65:statemachine.c ****        OutPut = ADC_Read32();
  68              		.loc 1 65 0 discriminator 3
  69 0006 FFF7FEFF 		bl	ADC_Read32
  70              	.LVL2:
  71 000a 0E4B     		ldr	r3, .L9
  72 000c 1860     		str	r0, [r3]
  66:statemachine.c ****        OutPut_mv = (uint16_t)OutPut;
  73              		.loc 1 66 0 discriminator 3
  74 000e 80B2     		uxth	r0, r0
  75 0010 0D4B     		ldr	r3, .L9+4
  76 0012 1880     		strh	r0, [r3]	@ movhi
  67:statemachine.c ****        high = (OutPut_mv>>8) & 0xFF;
  77              		.loc 1 67 0 discriminator 3
  78 0014 020A     		lsrs	r2, r0, #8
  79 0016 0D4B     		ldr	r3, .L9+8
  80 0018 1A70     		strb	r2, [r3]
  68:statemachine.c ****        low = OutPut_mv & 0xFF;
  81              		.loc 1 68 0 discriminator 3
  82 001a 0D4B     		ldr	r3, .L9+12
  83 001c 1870     		strb	r0, [r3]
  69:statemachine.c ****        sample[count_sample]=OutPut_mv;//low;
  84              		.loc 1 69 0 discriminator 3
  85 001e 0D4B     		ldr	r3, .L9+16
  86 0020 23F81400 		strh	r0, [r3, r4, lsl #1]	@ movhi
  63:statemachine.c ****    {
  87              		.loc 1 63 0 discriminator 3
  88 0024 0134     		adds	r4, r4, #1
  89              	.LVL3:
  90              	.L5:
  63:statemachine.c ****    {
  91              		.loc 1 63 0 is_stmt 0 discriminator 1
  92 0026 B4F5806F 		cmp	r4, #1024
  93 002a ECDB     		blt	.L6
  94              	.LBE2:
  70:statemachine.c ****    }
  71:statemachine.c ****     ch = UART_GetChar();
  95              		.loc 1 71 0 is_stmt 1
  96 002c FFF7FEFF 		bl	UART_GetChar
  97              	.LVL4:
  98 0030 094B     		ldr	r3, .L9+20
ARM GAS  C:\Users\MATEOC~1.QUE\AppData\Local\Temp\ccp2E1IX.s 			page 4


  99 0032 1870     		strb	r0, [r3]
  72:statemachine.c ****     if (charS == 1) //check for s character
 100              		.loc 1 72 0
 101 0034 094B     		ldr	r3, .L9+24
 102 0036 1B68     		ldr	r3, [r3]
 103 0038 012B     		cmp	r3, #1
 104 003a 02D1     		bne	.L4
  73:statemachine.c ****    {
  74:statemachine.c ****         state = STATE_UART_TRANSFER;
 105              		.loc 1 74 0
 106 003c 0222     		movs	r2, #2
 107 003e 074B     		ldr	r3, .L9+24
 108 0040 1A71     		strb	r2, [r3, #4]
 109              	.L4:
 110 0042 10BD     		pop	{r4, pc}
 111              	.LVL5:
 112              	.L10:
 113              		.align	2
 114              	.L9:
 115 0044 00000000 		.word	OutPut
 116 0048 00000000 		.word	OutPut_mv
 117 004c 00000000 		.word	high
 118 0050 00000000 		.word	low
 119 0054 00000000 		.word	sample
 120 0058 00000000 		.word	ch
 121 005c 00000000 		.word	.LANCHOR0
 122              		.cfi_endproc
 123              	.LFE65:
 124              		.size	sampling, .-sampling
 125              		.section	.text.uartTransfer,"ax",%progbits
 126              		.align	2
 127              		.global	uartTransfer
 128              		.thumb
 129              		.thumb_func
 130              		.type	uartTransfer, %function
 131              	uartTransfer:
 132              	.LFB66:
  75:statemachine.c ****    }
  76:statemachine.c ****     
  77:statemachine.c ****     
  78:statemachine.c **** }
  79:statemachine.c **** 
  80:statemachine.c **** /* uart_transfer function
  81:statemachine.c **** * checks if 'o' is recieved by matlab and checks the number of samples accordingy
  82:statemachine.c **** * caused by STATE_UART_TRANSFER
  83:statemachine.c **** * input parameters : NONE
  84:statemachine.c **** * return : NONE
  85:statemachine.c **** */
  86:statemachine.c **** void uartTransfer()
  87:statemachine.c **** {
 133              		.loc 1 87 0
 134              		.cfi_startproc
 135              		@ args = 0, pretend = 0, frame = 0
 136              		@ frame_needed = 0, uses_anonymous_args = 0
 137 0000 38B5     		push	{r3, r4, r5, lr}
 138              		.cfi_def_cfa_offset 16
 139              		.cfi_offset 3, -16
ARM GAS  C:\Users\MATEOC~1.QUE\AppData\Local\Temp\ccp2E1IX.s 			page 5


 140              		.cfi_offset 4, -12
 141              		.cfi_offset 5, -8
 142              		.cfi_offset 14, -4
 143              	.LVL6:
 144              	.LBB3:
  88:statemachine.c ****     //UART_PutString("UART TRANSFER\n");
  89:statemachine.c ****     for (int count_send=0;count_send<1024;count_send++)
 145              		.loc 1 89 0
 146 0002 0024     		movs	r4, #0
 147 0004 0AE0     		b	.L12
 148              	.LVL7:
 149              	.L13:
 150              	.LBB4:
  90:statemachine.c ****     {
  91:statemachine.c ****        uint8 low = (sample[count_send]) & 0xFF;
 151              		.loc 1 91 0 discriminator 3
 152 0006 114D     		ldr	r5, .L17
 153              	.LVL8:
  92:statemachine.c ****        UART_PutChar(low);
 154              		.loc 1 92 0 discriminator 3
 155 0008 15F81400 		ldrb	r0, [r5, r4, lsl #1]	@ zero_extendqisi2
 156 000c FFF7FEFF 		bl	UART_PutChar
 157              	.LVL9:
  93:statemachine.c ****        uint8 high =((sample[count_send]>>8) & 0xFF);
 158              		.loc 1 93 0 discriminator 3
 159 0010 35F81400 		ldrh	r0, [r5, r4, lsl #1]
 160              	.LVL10:
  94:statemachine.c ****        UART_PutChar(high);
 161              		.loc 1 94 0 discriminator 3
 162 0014 000A     		lsrs	r0, r0, #8
 163              	.LVL11:
 164 0016 FFF7FEFF 		bl	UART_PutChar
 165              	.LVL12:
 166              	.LBE4:
  89:statemachine.c ****     {
 167              		.loc 1 89 0 discriminator 3
 168 001a 0134     		adds	r4, r4, #1
 169              	.LVL13:
 170              	.L12:
  89:statemachine.c ****     {
 171              		.loc 1 89 0 is_stmt 0 discriminator 1
 172 001c B4F5806F 		cmp	r4, #1024
 173 0020 F1DB     		blt	.L13
 174              	.LBE3:
  95:statemachine.c ****     }
  96:statemachine.c **** 
  97:statemachine.c ****     count++;
 175              		.loc 1 97 0 is_stmt 1
 176 0022 0B4A     		ldr	r2, .L17+4
 177 0024 1378     		ldrb	r3, [r2]	@ zero_extendqisi2
 178 0026 0133     		adds	r3, r3, #1
 179 0028 DBB2     		uxtb	r3, r3
 180 002a 1370     		strb	r3, [r2]
  98:statemachine.c ****     
  99:statemachine.c ****     if(charO == 1)
 181              		.loc 1 99 0
 182 002c 094A     		ldr	r2, .L17+8
ARM GAS  C:\Users\MATEOC~1.QUE\AppData\Local\Temp\ccp2E1IX.s 			page 6


 183 002e 9268     		ldr	r2, [r2, #8]
 184 0030 012A     		cmp	r2, #1
 185 0032 09D1     		bne	.L11
 100:statemachine.c ****     {
 101:statemachine.c ****         if(count < 10)
 186              		.loc 1 101 0
 187 0034 092B     		cmp	r3, #9
 188 0036 02D8     		bhi	.L15
 102:statemachine.c ****         {
 103:statemachine.c ****             state = STATE_SAMPLING;
 189              		.loc 1 103 0
 190 0038 064B     		ldr	r3, .L17+8
 191 003a 1A71     		strb	r2, [r3, #4]
 104:statemachine.c ****             return;
 192              		.loc 1 104 0
 193 003c 38BD     		pop	{r3, r4, r5, pc}
 194              	.LVL14:
 195              	.L15:
 105:statemachine.c ****         }
 106:statemachine.c ****         else if(count == 10 || count > 10)
 196              		.loc 1 106 0
 197 003e 092B     		cmp	r3, #9
 198 0040 02D9     		bls	.L11
 107:statemachine.c ****         {
 108:statemachine.c ****             state = STATE_IDLE;
 199              		.loc 1 108 0
 200 0042 0022     		movs	r2, #0
 201 0044 034B     		ldr	r3, .L17+8
 202 0046 1A71     		strb	r2, [r3, #4]
 203              	.L11:
 204 0048 38BD     		pop	{r3, r4, r5, pc}
 205              	.LVL15:
 206              	.L18:
 207 004a 00BF     		.align	2
 208              	.L17:
 209 004c 00000000 		.word	sample
 210 0050 00000000 		.word	count
 211 0054 00000000 		.word	.LANCHOR0
 212              		.cfi_endproc
 213              	.LFE66:
 214              		.size	uartTransfer, .-uartTransfer
 215              		.section	.text.stateMachine,"ax",%progbits
 216              		.align	2
 217              		.global	stateMachine
 218              		.thumb
 219              		.thumb_func
 220              		.type	stateMachine, %function
 221              	stateMachine:
 222              	.LFB63:
  20:statemachine.c ****     switch(state)
 223              		.loc 1 20 0
 224              		.cfi_startproc
 225              		@ args = 0, pretend = 0, frame = 0
 226              		@ frame_needed = 0, uses_anonymous_args = 0
 227              	.LVL16:
 228 0000 08B5     		push	{r3, lr}
 229              		.cfi_def_cfa_offset 8
ARM GAS  C:\Users\MATEOC~1.QUE\AppData\Local\Temp\ccp2E1IX.s 			page 7


 230              		.cfi_offset 3, -8
 231              		.cfi_offset 14, -4
  21:statemachine.c ****         {
 232              		.loc 1 21 0
 233 0002 0128     		cmp	r0, #1
 234 0004 03D0     		beq	.L21
 235 0006 A0B1     		cbz	r0, .L22
 236 0008 0228     		cmp	r0, #2
 237 000a 09D0     		beq	.L23
 238 000c 08BD     		pop	{r3, pc}
 239              	.L21:
  24:statemachine.c ****                 sampling();
 240              		.loc 1 24 0
 241 000e 0120     		movs	r0, #1
 242              	.LVL17:
 243 0010 FFF7FEFF 		bl	LED_yellow_Write
 244              	.LVL18:
  25:statemachine.c ****                 LED_yellow_Write(0);
 245              		.loc 1 25 0
 246 0014 FFF7FEFF 		bl	sampling
 247              	.LVL19:
  26:statemachine.c ****                 break;
 248              		.loc 1 26 0
 249 0018 0020     		movs	r0, #0
 250 001a FFF7FEFF 		bl	LED_yellow_Write
 251              	.LVL20:
  27:statemachine.c ****             case STATE_UART_TRANSFER:
 252              		.loc 1 27 0
 253 001e 08BD     		pop	{r3, pc}
 254              	.LVL21:
 255              	.L23:
  29:statemachine.c ****                 uartTransfer();
 256              		.loc 1 29 0
 257 0020 0120     		movs	r0, #1
 258              	.LVL22:
 259 0022 FFF7FEFF 		bl	LED_green_Write
 260              	.LVL23:
  30:statemachine.c ****                 LED_green_Write(0);
 261              		.loc 1 30 0
 262 0026 FFF7FEFF 		bl	uartTransfer
 263              	.LVL24:
  31:statemachine.c ****                 break;
 264              		.loc 1 31 0
 265 002a 0020     		movs	r0, #0
 266 002c FFF7FEFF 		bl	LED_green_Write
 267              	.LVL25:
  32:statemachine.c ****             case STATE_IDLE:
 268              		.loc 1 32 0
 269 0030 08BD     		pop	{r3, pc}
 270              	.LVL26:
 271              	.L22:
  34:statemachine.c ****                 idle(); // default state is the STATE_IDLE
 272              		.loc 1 34 0
 273 0032 0120     		movs	r0, #1
 274              	.LVL27:
 275 0034 FFF7FEFF 		bl	LED_red_Write
 276              	.LVL28:
ARM GAS  C:\Users\MATEOC~1.QUE\AppData\Local\Temp\ccp2E1IX.s 			page 8


  35:statemachine.c ****                 LED_red_Write(0);
 277              		.loc 1 35 0
 278 0038 FFF7FEFF 		bl	idle
 279              	.LVL29:
  36:statemachine.c ****                 break;
 280              		.loc 1 36 0
 281 003c 0020     		movs	r0, #0
 282 003e FFF7FEFF 		bl	LED_red_Write
 283              	.LVL30:
 284 0042 08BD     		pop	{r3, pc}
 285              		.cfi_endproc
 286              	.LFE63:
 287              		.size	stateMachine, .-stateMachine
 288              		.global	charO
 289              		.global	charS
 290              		.comm	ch,1,1
 291              		.comm	low,1,1
 292              		.comm	high,1,1
 293              		.comm	OutPut_mv,2,2
 294              		.comm	OutPut,4,4
 295              		.global	state
 296              		.comm	sample,2048,4
 297              		.comm	count,1,1
 298              		.bss
 299              		.align	2
 300              		.set	.LANCHOR0,. + 0
 301              		.type	charS, %object
 302              		.size	charS, 4
 303              	charS:
 304 0000 00000000 		.space	4
 305              		.type	state, %object
 306              		.size	state, 1
 307              	state:
 308 0004 00       		.space	1
 309 0005 000000   		.space	3
 310              		.type	charO, %object
 311              		.size	charO, 4
 312              	charO:
 313 0008 00000000 		.space	4
 314              		.text
 315              	.Letext0:
 316              		.file 2 "c:\\program files (x86)\\cypress\\psoc creator\\4.4\\psoc creator\\import\\gnu\\arm\\5.4.
 317              		.file 3 "c:\\program files (x86)\\cypress\\psoc creator\\4.4\\psoc creator\\import\\gnu\\arm\\5.4.
 318              		.file 4 "Generated_Source\\PSoC5/cytypes.h"
 319              		.file 5 "statemachine.h"
 320              		.file 6 "Generated_Source\\PSoC5/core_cm3.h"
 321              		.file 7 "Generated_Source\\PSoC5/ADC.h"
 322              		.file 8 "Generated_Source\\PSoC5/UART.h"
 323              		.file 9 "Generated_Source\\PSoC5/LED_yellow.h"
 324              		.file 10 "Generated_Source\\PSoC5/LED_green.h"
 325              		.file 11 "Generated_Source\\PSoC5/LED_red.h"